; Function Attrs: nounwind uwtable
define internal range(i32 0, 2) i32 @test_PACKET_get_1() #0 {
  %1 = tail call i32 @test_true(ptr noundef nonnull @.str.25, i32 noundef 53, ptr noundef nonnull @.str.34, i32 noundef 1) #6
  %.not = icmp eq i32 %1, 0
  br i1 %.not, label %14, label %PACKET_get_1.exit

PACKET_get_1.exit:                                ; preds = %0
  %2 = load i8, ptr @smbuf, align 16, !tbaa !4
  %3 = tail call i32 @test_true(ptr noundef nonnull @.str.25, i32 noundef 54, ptr noundef nonnull @.str.46, i32 noundef 1) #6
  %.not1 = icmp eq i32 %3, 0
  br i1 %.not1, label %14, label %4

4:                                                ; preds = %PACKET_get_1.exit
  %5 = zext i8 %2 to i32
  %6 = tail call i32 @test_uint_eq(ptr noundef nonnull @.str.25, i32 noundef 55, ptr noundef nonnull @.str.47, ptr noundef nonnull @.str.48, i32 noundef %5, i32 noundef 2) #6
  %.not2 = icmp eq i32 %6, 0
  br i1 %.not2, label %14, label %PACKET_forward.exit

PACKET_forward.exit:                              ; preds = %4
  %7 = tail call i32 @test_true(ptr noundef nonnull @.str.25, i32 noundef 56, ptr noundef nonnull @.str.49, i32 noundef 1) #6
  %.not3 = icmp eq i32 %7, 0
  br i1 %.not3, label %14, label %PACKET_get_1.exit11

PACKET_get_1.exit11:                              ; preds = %PACKET_forward.exit
  %8 = load i8, ptr getelementptr inbounds nuw (i8, ptr @smbuf, i64 254), align 2, !tbaa !4
  %9 = tail call i32 @test_true(ptr noundef nonnull @.str.25, i32 noundef 57, ptr noundef nonnull @.str.46, i32 noundef 1) #6
  %.not4 = icmp eq i32 %9, 0
  br i1 %.not4, label %14, label %10

10:                                               ; preds = %PACKET_get_1.exit11
  %11 = zext i8 %8 to i32
  %12 = tail call i32 @test_uint_eq(ptr noundef nonnull @.str.25, i32 noundef 58, ptr noundef nonnull @.str.47, ptr noundef nonnull @.str.50, i32 noundef %11, i32 noundef 254) #6
  %.not5 = icmp eq i32 %12, 0
  br i1 %.not5, label %14, label %PACKET_get_1.exit15

PACKET_get_1.exit15:                              ; preds = %10
  %13 = tail call i32 @test_false(ptr noundef nonnull @.str.25, i32 noundef 59, ptr noundef nonnull @.str.46, i32 noundef 0) #6
  %.not6 = icmp ne i32 %13, 0
  %spec.select = zext i1 %.not6 to i32
  br label %14

14:                                               ; preds = %PACKET_get_1.exit15, %0, %PACKET_get_1.exit, %4, %PACKET_forward.exit, %PACKET_get_1.exit11, %10
  %.0 = phi i32 [ 0, %10 ], [ 0, %PACKET_get_1.exit11 ], [ 0, %PACKET_forward.exit ], [ 0, %4 ], [ 0, %PACKET_get_1.exit ], [ 0, %0 ], [ %spec.select, %PACKET_get_1.exit15 ]
  ret i32 %.0
}